target datalayout = "e-m:e-p270:32:32-p271:32:32-p272:64:64-i64:64-i128:128-f80:128-n8:16:32:64-S128"
target triple = "x86_64-pc-linux-gnu"

%struct.dict = type { ptr, [2 x ptr], [2 x i64], i64, i16, [2 x i8], i16, [0 x ptr] }
%struct.dictExpireMetadata = type { %struct.ExpireMeta, ptr, ptr }
%struct.ExpireMeta = type { i32, i16, i16, ptr }
%struct.redisObject = type { i32, i32, ptr }
%struct.listpackEx = type { %struct.ExpireMeta, ptr, ptr }

@.str.2 = private unnamed_addr constant [9 x i8] c"t_hash.c\00", align 1
@.str.30 = private unnamed_addr constant [25 x i8] c"m->expireMeta.trash == 1\00", align 1
@.str.31 = private unnamed_addr constant [41 x i8] c"((listpackEx *) o->ptr)->meta.trash == 1\00", align 1
@.str.32 = private unnamed_addr constant [27 x i8] c"Unknown hash encoding type\00", align 1

; Function Attrs: nounwind uwtable
define internal void @listpackExFree(ptr noundef %0) #1 {
  %2 = alloca ptr, align 8
  store ptr %0, ptr %2, align 8, !tbaa !19
  %3 = load ptr, ptr %2, align 8, !tbaa !19
  %4 = getelementptr inbounds nuw %struct.listpackEx, ptr %3, i32 0, i32 2
  %5 = load ptr, ptr %4, align 8, !tbaa !21
  call void @lpFree(ptr noundef %5)
  %6 = load ptr, ptr %2, align 8, !tbaa !19
  call void @zfree(ptr noundef %6)
  ret void
}

; Function Attrs: inlinehint nounwind uwtable
define internal i32 @isDictWithMetaHFE(ptr noundef %0) #7 {
  %2 = alloca ptr, align 8
  store ptr %0, ptr %2, align 8, !tbaa !5
  %3 = load ptr, ptr %2, align 8, !tbaa !5
  %4 = getelementptr inbounds nuw %struct.dict, ptr %3, i32 0, i32 0
  %5 = load ptr, ptr %4, align 8, !tbaa !128
  %6 = icmp eq ptr %5, @mstrHashDictTypeWithHFE
  %7 = zext i1 %6 to i32
  ret i32 %7
}

; Function Attrs: nounwind uwtable
define dso_local void @hashTypeFree(ptr noundef %0) #1 {
  %2 = alloca ptr, align 8
  %3 = alloca ptr, align 8
  store ptr %0, ptr %2, align 8, !tbaa !15
  %4 = load ptr, ptr %2, align 8, !tbaa !15
  %5 = load i32, ptr %4, align 8
  %6 = lshr i32 %5, 4
  %7 = and i32 %6, 15
  switch i32 %7, label %69 [
    i32 2, label %8
    i32 11, label %41
    i32 12, label %45
  ]

8:                                                ; preds = %1
  %9 = load ptr, ptr %2, align 8, !tbaa !15
  %10 = getelementptr inbounds nuw %struct.redisObject, ptr %9, i32 0, i32 2
  %11 = load ptr, ptr %10, align 8, !tbaa !17
  %12 = call i32 @isDictWithMetaHFE(ptr noundef %11)
  %13 = icmp ne i32 %12, 0
  br i1 %13, label %14, label %37

14:                                               ; preds = %8
  call void @llvm.lifetime.start.p0(i64 8, ptr %3) #12
  %15 = load ptr, ptr %2, align 8, !tbaa !15
  %16 = getelementptr inbounds nuw %struct.redisObject, ptr %15, i32 0, i32 2
  %17 = load ptr, ptr %16, align 8, !tbaa !17
  %18 = getelementptr inbounds nuw %struct.dict, ptr %17, i32 0, i32 7
  store ptr %18, ptr %3, align 8, !tbaa !11
  %19 = load ptr, ptr %3, align 8, !tbaa !11
  %20 = getelementptr inbounds nuw %struct.dictExpireMetadata, ptr %19, i32 0, i32 0
  %21 = getelementptr inbounds nuw %struct.ExpireMeta, ptr %20, i32 0, i32 2
  %22 = load i16, ptr %21, align 2
  %23 = lshr i16 %22, 8
  %24 = and i16 %23, 1
  %25 = zext i16 %24 to i32
  %26 = icmp eq i32 %25, 1
  %27 = xor i1 %26, true
  %28 = xor i1 %27, true
  %29 = zext i1 %28 to i32
  %30 = sext i32 %29 to i64
  %31 = call i64 @llvm.expect.i64(i64 %30, i64 1)
  %32 = icmp ne i64 %31, 0
  br i1 %32, label %33, label %34

33:                                               ; preds = %14
  br label %36

34:                                               ; preds = %14
  call void @_serverAssert(ptr noundef @.str.30, ptr noundef @.str.2, i32 noundef 2106)
  call void @abort() #14
  unreachable

35:                                               ; No predecessors!
  br label %36

36:                                               ; preds = %35, %33
  call void @llvm.lifetime.end.p0(i64 8, ptr %3) #12
  br label %37

37:                                               ; preds = %36, %8
  %38 = load ptr, ptr %2, align 8, !tbaa !15
  %39 = getelementptr inbounds nuw %struct.redisObject, ptr %38, i32 0, i32 2
  %40 = load ptr, ptr %39, align 8, !tbaa !17
  call void @dictRelease(ptr noundef %40)
  br label %70

41:                                               ; preds = %1
  %42 = load ptr, ptr %2, align 8, !tbaa !15
  %43 = getelementptr inbounds nuw %struct.redisObject, ptr %42, i32 0, i32 2
  %44 = load ptr, ptr %43, align 8, !tbaa !17
  call void @lpFree(ptr noundef %44)
  br label %70

45:                                               ; preds = %1
  %46 = load ptr, ptr %2, align 8, !tbaa !15
  %47 = getelementptr inbounds nuw %struct.redisObject, ptr %46, i32 0, i32 2
  %48 = load ptr, ptr %47, align 8, !tbaa !17
  %49 = getelementptr inbounds nuw %struct.listpackEx, ptr %48, i32 0, i32 0
  %50 = getelementptr inbounds nuw %struct.ExpireMeta, ptr %49, i32 0, i32 2
  %51 = load i16, ptr %50, align 2
  %52 = lshr i16 %51, 8
  %53 = and i16 %52, 1
  %54 = zext i16 %53 to i32
  %55 = icmp eq i32 %54, 1
  %56 = xor i1 %55, true
  %57 = xor i1 %56, true
  %58 = zext i1 %57 to i32
  %59 = sext i32 %58 to i64
  %60 = call i64 @llvm.expect.i64(i64 %59, i64 1)
  %61 = icmp ne i64 %60, 0
  br i1 %61, label %62, label %63

62:                                               ; preds = %45
  br label %65

63:                                               ; preds = %45
  call void @_serverAssert(ptr noundef @.str.31, ptr noundef @.str.2, i32 noundef 2115)
  call void @abort() #14
  unreachable

64:                                               ; No predecessors!
  br label %65

65:                                               ; preds = %64, %62
  %66 = load ptr, ptr %2, align 8, !tbaa !15
  %67 = getelementptr inbounds nuw %struct.redisObject, ptr %66, i32 0, i32 2
  %68 = load ptr, ptr %67, align 8, !tbaa !17
  call void @listpackExFree(ptr noundef %68)
  br label %70

69:                                               ; preds = %1
  call void (ptr, i32, ptr, ...) @_serverPanic(ptr noundef @.str.2, i32 noundef 2119, ptr noundef @.str.32)
  call void @abort() #14
  unreachable

70:                                               ; preds = %65, %41, %37
  ret void
}