; Function Attrs: nounwind uwtable
define dso_local void @hashTypeFree(ptr noundef readonly captures(none) %0) local_unnamed_addr #1 {
  %2 = load i32, ptr %0, align 8
  %3 = lshr i32 %2, 4
  %4 = and i32 %3, 15
  switch i32 %4, label %27 [
    i32 2, label %5
    i32 11, label %14
    i32 12, label %17
  ]

5:                                                ; preds = %1
  %6 = getelementptr inbounds nuw i8, ptr %0, i64 8
  %7 = load ptr, ptr %6, align 8, !tbaa !10
  %.val = load ptr, ptr %7, align 8, !tbaa !56
  %.not10 = icmp eq ptr %.val, @mstrHashDictTypeWithHFE
  br i1 %.not10, label %8, label %13

8:                                                ; preds = %5
  %9 = getelementptr inbounds nuw i8, ptr %7, i64 62
  %10 = load i16, ptr %9, align 2
  %11 = and i16 %10, 256
  %.not9 = icmp eq i16 %11, 0
  br i1 %.not9, label %12, label %13, !prof !23

12:                                               ; preds = %8
  tail call void @_serverAssert(ptr noundef nonnull @.str.30, ptr noundef nonnull @.str.2, i32 noundef 2106) #16
  tail call void @abort() #17
  unreachable

13:                                               ; preds = %8, %5
  tail call void @dictRelease(ptr noundef nonnull %7) #16
  br label %28

14:                                               ; preds = %1
  %15 = getelementptr inbounds nuw i8, ptr %0, i64 8
  %16 = load ptr, ptr %15, align 8, !tbaa !10
  tail call void @lpFree(ptr noundef %16) #16
  br label %28

17:                                               ; preds = %1
  %18 = getelementptr inbounds nuw i8, ptr %0, i64 8
  %19 = load ptr, ptr %18, align 8, !tbaa !10
  %20 = getelementptr inbounds nuw i8, ptr %19, i64 6
  %21 = load i16, ptr %20, align 2
  %22 = and i16 %21, 256
  %.not = icmp eq i16 %22, 0
  br i1 %.not, label %23, label %24, !prof !23

23:                                               ; preds = %17
  tail call void @_serverAssert(ptr noundef nonnull @.str.31, ptr noundef nonnull @.str.2, i32 noundef 2115) #16
  tail call void @abort() #17
  unreachable

24:                                               ; preds = %17
  %25 = getelementptr inbounds nuw i8, ptr %19, i64 24
  %26 = load ptr, ptr %25, align 8, !tbaa !15
  tail call void @lpFree(ptr noundef %26) #16
  tail call void @zfree(ptr noundef nonnull %19) #16
  br label %28

27:                                               ; preds = %1
  tail call void (ptr, i32, ptr, ...) @_serverPanic(ptr noundef nonnull @.str.2, i32 noundef 2119, ptr noundef nonnull @.str.32) #16
  tail call void @abort() #17
  unreachable

28:                                               ; preds = %24, %14, %13
  ret void
}